target datalayout = "e-m:e-p270:32:32-p271:32:32-p272:64:64-i64:64-i128:128-f80:128-n8:16:32:64-S128"
target triple = "x86_64-pc-linux-gnu"

%struct.Aig_ManCut_t_ = type { ptr, ptr, i32, i32, i32, i32, i32, i32, ptr, [4 x ptr] }
%struct.Aig_Obj_t_ = type { %union.anon, ptr, ptr, i64, i32, i32, %union.anon.0 }
%union.anon = type { ptr }
%union.anon.0 = type { ptr }
%struct.Aig_Cut_t_ = type { ptr, i32, i32, i32, i16, i8, i8, [0 x i32] }

@.str = private unnamed_addr constant [2 x i8] c"{\00", align 1
@.str.1 = private unnamed_addr constant [4 x i8] c" %d\00", align 1
@.str.2 = private unnamed_addr constant [4 x i8] c" }\0A\00", align 1
@.str.3 = private unnamed_addr constant [19 x i8] c"Cuts for node %d:\0A\00", align 1

; Function Attrs: inlinehint nounwind uwtable
define internal ptr @Aig_CutNext(ptr noundef %0) #5 {
  %2 = alloca ptr, align 8
  store ptr %0, ptr %2, align 8, !tbaa !37
  %3 = load ptr, ptr %2, align 8, !tbaa !37
  %4 = load ptr, ptr %2, align 8, !tbaa !37
  %5 = getelementptr inbounds nuw %struct.Aig_Cut_t_, ptr %4, i32 0, i32 4
  %6 = load i16, ptr %5, align 4, !tbaa !47
  %7 = sext i16 %6 to i32
  %8 = sext i32 %7 to i64
  %9 = getelementptr inbounds i8, ptr %3, i64 %8
  ret ptr %9
}

; Function Attrs: nounwind uwtable
define void @Aig_CutPrint(ptr noundef %0) #0 {
  %2 = alloca ptr, align 8
  %3 = alloca i32, align 4
  store ptr %0, ptr %2, align 8, !tbaa !37
  call void @llvm.lifetime.start.p0(i64 4, ptr %3) #10
  %4 = call i32 (ptr, ...) @printf(ptr noundef @.str)
  store i32 0, ptr %3, align 4, !tbaa !8
  br label %5

5:                                                ; preds = %20, %1
  %6 = load i32, ptr %3, align 4, !tbaa !8
  %7 = load ptr, ptr %2, align 8, !tbaa !37
  %8 = getelementptr inbounds nuw %struct.Aig_Cut_t_, ptr %7, i32 0, i32 6
  %9 = load i8, ptr %8, align 1, !tbaa !39
  %10 = sext i8 %9 to i32
  %11 = icmp slt i32 %6, %10
  br i1 %11, label %12, label %23

12:                                               ; preds = %5
  %13 = load ptr, ptr %2, align 8, !tbaa !37
  %14 = getelementptr inbounds nuw %struct.Aig_Cut_t_, ptr %13, i32 0, i32 7
  %15 = load i32, ptr %3, align 4, !tbaa !8
  %16 = sext i32 %15 to i64
  %17 = getelementptr inbounds [0 x i32], ptr %14, i64 0, i64 %16
  %18 = load i32, ptr %17, align 4, !tbaa !8
  %19 = call i32 (ptr, ...) @printf(ptr noundef @.str.1, i32 noundef %18)
  br label %20

20:                                               ; preds = %12
  %21 = load i32, ptr %3, align 4, !tbaa !8
  %22 = add nsw i32 %21, 1
  store i32 %22, ptr %3, align 4, !tbaa !8
  br label %5, !llvm.loop !42

23:                                               ; preds = %5
  %24 = call i32 (ptr, ...) @printf(ptr noundef @.str.2)
  call void @llvm.lifetime.end.p0(i64 4, ptr %3) #10
  ret void
}

; Function Attrs: inlinehint nounwind uwtable
define internal ptr @Aig_ObjCuts(ptr noundef %0, ptr noundef %1) #5 {
  %3 = alloca ptr, align 8
  %4 = alloca ptr, align 8
  store ptr %0, ptr %3, align 8, !tbaa !10
  store ptr %1, ptr %4, align 8, !tbaa !44
  %5 = load ptr, ptr %3, align 8, !tbaa !10
  %6 = getelementptr inbounds nuw %struct.Aig_ManCut_t_, ptr %5, i32 0, i32 1
  %7 = load ptr, ptr %6, align 8, !tbaa !20
  %8 = load ptr, ptr %4, align 8, !tbaa !44
  %9 = getelementptr inbounds nuw %struct.Aig_Obj_t_, ptr %8, i32 0, i32 5
  %10 = load i32, ptr %9, align 4, !tbaa !45
  %11 = sext i32 %10 to i64
  %12 = getelementptr inbounds ptr, ptr %7, i64 %11
  %13 = load ptr, ptr %12, align 8, !tbaa !37
  ret ptr %13
}

; Function Attrs: nounwind uwtable
define void @Aig_ObjCutPrint(ptr noundef %0, ptr noundef %1) #0 {
  %3 = alloca ptr, align 8
  %4 = alloca ptr, align 8
  %5 = alloca ptr, align 8
  %6 = alloca i32, align 4
  store ptr %0, ptr %3, align 8, !tbaa !10
  store ptr %1, ptr %4, align 8, !tbaa !44
  call void @llvm.lifetime.start.p0(i64 8, ptr %5) #10
  call void @llvm.lifetime.start.p0(i64 4, ptr %6) #10
  %7 = load ptr, ptr %4, align 8, !tbaa !44
  %8 = getelementptr inbounds nuw %struct.Aig_Obj_t_, ptr %7, i32 0, i32 5
  %9 = load i32, ptr %8, align 4, !tbaa !45
  %10 = call i32 (ptr, ...) @printf(ptr noundef @.str.3, i32 noundef %9)
  store i32 0, ptr %6, align 4, !tbaa !8
  %11 = load ptr, ptr %3, align 8, !tbaa !10
  %12 = load ptr, ptr %4, align 8, !tbaa !44
  %13 = call ptr @Aig_ObjCuts(ptr noundef %11, ptr noundef %12)
  store ptr %13, ptr %5, align 8, !tbaa !37
  br label %14

14:                                               ; preds = %28, %2
  %15 = load i32, ptr %6, align 4, !tbaa !8
  %16 = load ptr, ptr %3, align 8, !tbaa !10
  %17 = getelementptr inbounds nuw %struct.Aig_ManCut_t_, ptr %16, i32 0, i32 2
  %18 = load i32, ptr %17, align 8, !tbaa !12
  %19 = icmp slt i32 %15, %18
  br i1 %19, label %20, label %33

20:                                               ; preds = %14
  %21 = load ptr, ptr %5, align 8, !tbaa !37
  %22 = getelementptr inbounds nuw %struct.Aig_Cut_t_, ptr %21, i32 0, i32 6
  %23 = load i8, ptr %22, align 1, !tbaa !39
  %24 = icmp ne i8 %23, 0
  br i1 %24, label %25, label %27

25:                                               ; preds = %20
  %26 = load ptr, ptr %5, align 8, !tbaa !37
  call void @Aig_CutPrint(ptr noundef %26)
  br label %27

27:                                               ; preds = %25, %20
  br label %28

28:                                               ; preds = %27
  %29 = load i32, ptr %6, align 4, !tbaa !8
  %30 = add nsw i32 %29, 1
  store i32 %30, ptr %6, align 4, !tbaa !8
  %31 = load ptr, ptr %5, align 8, !tbaa !37
  %32 = call ptr @Aig_CutNext(ptr noundef %31)
  store ptr %32, ptr %5, align 8, !tbaa !37
  br label %14, !llvm.loop !46

33:                                               ; preds = %14
  call void @llvm.lifetime.end.p0(i64 4, ptr %6) #10
  call void @llvm.lifetime.end.p0(i64 8, ptr %5) #10
  ret void
}