; Function Attrs: nofree nounwind uwtable
define void @Aig_ObjCutPrint(ptr noundef readonly captures(none) %0, ptr noundef readonly captures(none) %1) local_unnamed_addr #7 {
  %3 = getelementptr inbounds nuw i8, ptr %1, i64 36
  %4 = load i32, ptr %3, align 4, !tbaa !42
  %5 = tail call i32 (ptr, ...) @printf(ptr noundef nonnull dereferenceable(1) @.str.3, i32 noundef %4)
  %6 = getelementptr inbounds nuw i8, ptr %0, i64 16
  %7 = load i32, ptr %6, align 8, !tbaa !3
  %8 = icmp sgt i32 %7, 0
  br i1 %8, label %.lr.ph.preheader, label %._crit_edge

.lr.ph.preheader:                                 ; preds = %2
  %9 = getelementptr i8, ptr %0, i64 8
  %.val = load ptr, ptr %9, align 8, !tbaa !30
  %.val9 = load i32, ptr %3, align 4, !tbaa !42
  %10 = sext i32 %.val9 to i64
  %11 = getelementptr inbounds ptr, ptr %.val, i64 %10
  %12 = load ptr, ptr %11, align 8, !tbaa !43
  br label %.lr.ph

.lr.ph:                                           ; preds = %.lr.ph.preheader, %27
  %13 = phi i32 [ %28, %27 ], [ %7, %.lr.ph.preheader ]
  %.011 = phi i32 [ %29, %27 ], [ 0, %.lr.ph.preheader ]
  %.0810 = phi ptr [ %33, %27 ], [ %12, %.lr.ph.preheader ]
  %14 = getelementptr inbounds nuw i8, ptr %.0810, i64 23
  %15 = load i8, ptr %14, align 1, !tbaa !35
  %.not = icmp eq i8 %15, 0
  br i1 %.not, label %27, label %16

16:                                               ; preds = %.lr.ph
  %putchar.i = tail call i32 @putchar(i32 123)
  %17 = load i8, ptr %14, align 1, !tbaa !35
  %18 = icmp sgt i8 %17, 0
  br i1 %18, label %.lr.ph.i, label %Aig_CutPrint.exit

.lr.ph.i:                                         ; preds = %16
  %19 = getelementptr inbounds nuw i8, ptr %.0810, i64 24
  br label %20

20:                                               ; preds = %20, %.lr.ph.i
  %indvars.iv.i = phi i64 [ 0, %.lr.ph.i ], [ %indvars.iv.next.i, %20 ]
  %21 = getelementptr inbounds nuw [0 x i32], ptr %19, i64 0, i64 %indvars.iv.i
  %22 = load i32, ptr %21, align 4, !tbaa !39
  %23 = tail call i32 (ptr, ...) @printf(ptr noundef nonnull dereferenceable(1) @.str.1, i32 noundef %22)
  %indvars.iv.next.i = add nuw nsw i64 %indvars.iv.i, 1
  %24 = load i8, ptr %14, align 1, !tbaa !35
  %25 = sext i8 %24 to i64
  %26 = icmp slt i64 %indvars.iv.next.i, %25
  br i1 %26, label %20, label %Aig_CutPrint.exit, !llvm.loop !40

Aig_CutPrint.exit:                                ; preds = %20, %16
  %puts.i = tail call i32 @puts(ptr nonnull dereferenceable(1) @str)
  %.pre = load i32, ptr %6, align 8, !tbaa !3
  br label %27

27:                                               ; preds = %.lr.ph, %Aig_CutPrint.exit
  %28 = phi i32 [ %13, %.lr.ph ], [ %.pre, %Aig_CutPrint.exit ]
  %29 = add nuw nsw i32 %.011, 1
  %30 = getelementptr inbounds nuw i8, ptr %.0810, i64 20
  %31 = load i16, ptr %30, align 4, !tbaa !44
  %32 = sext i16 %31 to i64
  %33 = getelementptr inbounds i8, ptr %.0810, i64 %32
  %34 = icmp slt i32 %29, %28
  br i1 %34, label %.lr.ph, label %._crit_edge, !llvm.loop !45

._crit_edge:                                      ; preds = %27, %2
  ret void
}